target datalayout = "e-m:e-p270:32:32-p271:32:32-p272:64:64-i64:64-i128:128-f80:128-n8:16:32:64-S128"
target triple = "x86_64-pc-linux-gnu"

%struct.KDF_PBKDF1 = type { ptr, %struct.PROV_DIGEST, ptr, i64, ptr, i64, i64 }
%struct.PROV_DIGEST = type { ptr, ptr, ptr }
%struct.ossl_param_st = type { ptr, i32, ptr, i64, i64 }

@.str = private unnamed_addr constant [51 x i8] c"../openssl/providers/implementations/kdfs/pbkdf1.c\00", align 1
@.str.3 = private unnamed_addr constant [5 x i8] c"pass\00", align 1
@.str.4 = private unnamed_addr constant [5 x i8] c"salt\00", align 1
@.str.5 = private unnamed_addr constant [5 x i8] c"iter\00", align 1

; Function Attrs: nounwind uwtable
define internal i32 @kdf_pbkdf1_set_membuf(ptr noundef %0, ptr noundef %1, ptr noundef %2) #0 {
  %4 = alloca i32, align 4
  %5 = alloca ptr, align 8
  %6 = alloca ptr, align 8
  %7 = alloca ptr, align 8
  store ptr %0, ptr %5, align 8, !tbaa !32
  store ptr %1, ptr %6, align 8, !tbaa !34
  store ptr %2, ptr %7, align 8, !tbaa !21
  %8 = load ptr, ptr %5, align 8, !tbaa !32
  %9 = load ptr, ptr %8, align 8, !tbaa !19
  %10 = load ptr, ptr %6, align 8, !tbaa !34
  %11 = load i64, ptr %10, align 8, !tbaa !20
  call void @CRYPTO_clear_free(ptr noundef %9, i64 noundef %11, ptr noundef @.str, i32 noundef 163)
  %12 = load ptr, ptr %5, align 8, !tbaa !32
  store ptr null, ptr %12, align 8, !tbaa !19
  %13 = load ptr, ptr %6, align 8, !tbaa !34
  store i64 0, ptr %13, align 8, !tbaa !20
  %14 = load ptr, ptr %7, align 8, !tbaa !21
  %15 = getelementptr inbounds nuw %struct.ossl_param_st, ptr %14, i32 0, i32 3
  %16 = load i64, ptr %15, align 8, !tbaa !36
  %17 = icmp eq i64 %16, 0
  br i1 %17, label %18, label %24

18:                                               ; preds = %3
  %19 = call noalias ptr @CRYPTO_malloc(i64 noundef 1, ptr noundef @.str, i32 noundef 168)
  %20 = load ptr, ptr %5, align 8, !tbaa !32
  store ptr %19, ptr %20, align 8, !tbaa !19
  %21 = icmp eq ptr %19, null
  br i1 %21, label %22, label %23

22:                                               ; preds = %18
  store i32 0, ptr %4, align 4
  br label %39

23:                                               ; preds = %18
  br label %38

24:                                               ; preds = %3
  %25 = load ptr, ptr %7, align 8, !tbaa !21
  %26 = getelementptr inbounds nuw %struct.ossl_param_st, ptr %25, i32 0, i32 2
  %27 = load ptr, ptr %26, align 8, !tbaa !38
  %28 = icmp ne ptr %27, null
  br i1 %28, label %29, label %37

29:                                               ; preds = %24
  %30 = load ptr, ptr %7, align 8, !tbaa !21
  %31 = load ptr, ptr %5, align 8, !tbaa !32
  %32 = load ptr, ptr %6, align 8, !tbaa !34
  %33 = call i32 @OSSL_PARAM_get_octet_string(ptr noundef %30, ptr noundef %31, i64 noundef 0, ptr noundef %32)
  %34 = icmp ne i32 %33, 0
  br i1 %34, label %36, label %35

35:                                               ; preds = %29
  store i32 0, ptr %4, align 4
  br label %39

36:                                               ; preds = %29
  br label %37

37:                                               ; preds = %36, %24
  br label %38

38:                                               ; preds = %37, %23
  store i32 1, ptr %4, align 4
  br label %39

39:                                               ; preds = %38, %35, %22
  %40 = load i32, ptr %4, align 4
  ret i32 %40
}

; Function Attrs: nounwind uwtable
define internal i32 @kdf_pbkdf1_set_ctx_params(ptr noundef %0, ptr noundef %1) #0 {
  %3 = alloca i32, align 4
  %4 = alloca ptr, align 8
  %5 = alloca ptr, align 8
  %6 = alloca ptr, align 8
  %7 = alloca ptr, align 8
  %8 = alloca ptr, align 8
  %9 = alloca i32, align 4
  store ptr %0, ptr %4, align 8, !tbaa !3
  store ptr %1, ptr %5, align 8, !tbaa !21
  call void @llvm.lifetime.start.p0(i64 8, ptr %6) #5
  call void @llvm.lifetime.start.p0(i64 8, ptr %7) #5
  %10 = load ptr, ptr %4, align 8, !tbaa !3
  store ptr %10, ptr %7, align 8, !tbaa !3
  call void @llvm.lifetime.start.p0(i64 8, ptr %8) #5
  %11 = load ptr, ptr %7, align 8, !tbaa !3
  %12 = getelementptr inbounds nuw %struct.KDF_PBKDF1, ptr %11, i32 0, i32 0
  %13 = load ptr, ptr %12, align 8, !tbaa !7
  %14 = call ptr @ossl_prov_ctx_get0_libctx(ptr noundef %13)
  store ptr %14, ptr %8, align 8, !tbaa !24
  %15 = load ptr, ptr %7, align 8, !tbaa !3
  %16 = getelementptr inbounds nuw %struct.KDF_PBKDF1, ptr %15, i32 0, i32 1
  %17 = load ptr, ptr %5, align 8, !tbaa !21
  %18 = load ptr, ptr %8, align 8, !tbaa !24
  %19 = call i32 @ossl_prov_digest_load_from_params(ptr noundef %16, ptr noundef %17, ptr noundef %18)
  %20 = icmp ne i32 %19, 0
  br i1 %20, label %22, label %21

21:                                               ; preds = %2
  store i32 0, ptr %3, align 4
  store i32 1, ptr %9, align 4
  br label %63

22:                                               ; preds = %2
  %23 = load ptr, ptr %5, align 8, !tbaa !21
  %24 = call ptr @OSSL_PARAM_locate_const(ptr noundef %23, ptr noundef @.str.3)
  store ptr %24, ptr %6, align 8, !tbaa !21
  %25 = icmp ne ptr %24, null
  br i1 %25, label %26, label %36

26:                                               ; preds = %22
  %27 = load ptr, ptr %7, align 8, !tbaa !3
  %28 = getelementptr inbounds nuw %struct.KDF_PBKDF1, ptr %27, i32 0, i32 2
  %29 = load ptr, ptr %7, align 8, !tbaa !3
  %30 = getelementptr inbounds nuw %struct.KDF_PBKDF1, ptr %29, i32 0, i32 3
  %31 = load ptr, ptr %6, align 8, !tbaa !21
  %32 = call i32 @kdf_pbkdf1_set_membuf(ptr noundef %28, ptr noundef %30, ptr noundef %31)
  %33 = icmp ne i32 %32, 0
  br i1 %33, label %35, label %34

34:                                               ; preds = %26
  store i32 0, ptr %3, align 4
  store i32 1, ptr %9, align 4
  br label %63

35:                                               ; preds = %26
  br label %36

36:                                               ; preds = %35, %22
  %37 = load ptr, ptr %5, align 8, !tbaa !21
  %38 = call ptr @OSSL_PARAM_locate_const(ptr noundef %37, ptr noundef @.str.4)
  store ptr %38, ptr %6, align 8, !tbaa !21
  %39 = icmp ne ptr %38, null
  br i1 %39, label %40, label %50

40:                                               ; preds = %36
  %41 = load ptr, ptr %7, align 8, !tbaa !3
  %42 = getelementptr inbounds nuw %struct.KDF_PBKDF1, ptr %41, i32 0, i32 4
  %43 = load ptr, ptr %7, align 8, !tbaa !3
  %44 = getelementptr inbounds nuw %struct.KDF_PBKDF1, ptr %43, i32 0, i32 5
  %45 = load ptr, ptr %6, align 8, !tbaa !21
  %46 = call i32 @kdf_pbkdf1_set_membuf(ptr noundef %42, ptr noundef %44, ptr noundef %45)
  %47 = icmp ne i32 %46, 0
  br i1 %47, label %49, label %48

48:                                               ; preds = %40
  store i32 0, ptr %3, align 4
  store i32 1, ptr %9, align 4
  br label %63

49:                                               ; preds = %40
  br label %50

50:                                               ; preds = %49, %36
  %51 = load ptr, ptr %5, align 8, !tbaa !21
  %52 = call ptr @OSSL_PARAM_locate_const(ptr noundef %51, ptr noundef @.str.5)
  store ptr %52, ptr %6, align 8, !tbaa !21
  %53 = icmp ne ptr %52, null
  br i1 %53, label %54, label %62

54:                                               ; preds = %50
  %55 = load ptr, ptr %6, align 8, !tbaa !21
  %56 = load ptr, ptr %7, align 8, !tbaa !3
  %57 = getelementptr inbounds nuw %struct.KDF_PBKDF1, ptr %56, i32 0, i32 6
  %58 = call i32 @OSSL_PARAM_get_uint64(ptr noundef %55, ptr noundef %57)
  %59 = icmp ne i32 %58, 0
  br i1 %59, label %61, label %60

60:                                               ; preds = %54
  store i32 0, ptr %3, align 4
  store i32 1, ptr %9, align 4
  br label %63

61:                                               ; preds = %54
  br label %62

62:                                               ; preds = %61, %50
  store i32 1, ptr %3, align 4
  store i32 1, ptr %9, align 4
  br label %63

63:                                               ; preds = %62, %60, %48, %34, %21
  call void @llvm.lifetime.end.p0(i64 8, ptr %8) #5
  call void @llvm.lifetime.end.p0(i64 8, ptr %7) #5
  call void @llvm.lifetime.end.p0(i64 8, ptr %6) #5
  %64 = load i32, ptr %3, align 4
  ret i32 %64
}