; Function Attrs: nounwind uwtable
define internal range(i32 0, 2) i32 @kdf_pbkdf1_set_ctx_params(ptr noundef %0, ptr noundef %1) #0 {
  %3 = load ptr, ptr %0, align 8, !tbaa !3
  %4 = tail call ptr @ossl_prov_ctx_get0_libctx(ptr noundef %3) #6
  %5 = getelementptr inbounds nuw i8, ptr %0, i64 8
  %6 = tail call i32 @ossl_prov_digest_load_from_params(ptr noundef nonnull %5, ptr noundef %1, ptr noundef %4) #6
  %.not = icmp eq i32 %6, 0
  br i1 %.not, label %kdf_pbkdf1_set_membuf.exit.thread, label %7

7:                                                ; preds = %2
  %8 = tail call ptr @OSSL_PARAM_locate_const(ptr noundef %1, ptr noundef nonnull @.str.3) #6
  %.not19 = icmp eq ptr %8, null
  br i1 %.not19, label %kdf_pbkdf1_set_membuf.exit, label %9

9:                                                ; preds = %7
  %10 = getelementptr inbounds nuw i8, ptr %0, i64 32
  %11 = getelementptr inbounds nuw i8, ptr %0, i64 40
  %12 = load ptr, ptr %10, align 8, !tbaa !20
  %13 = load i64, ptr %11, align 8, !tbaa !21
  tail call void @CRYPTO_clear_free(ptr noundef %12, i64 noundef %13, ptr noundef nonnull @.str, i32 noundef 163) #6
  %14 = getelementptr inbounds nuw i8, ptr %8, i64 24
  tail call void @llvm.memset.p0.i64(ptr noundef nonnull align 8 dereferenceable(16) %10, i8 0, i64 16, i1 false)
  %15 = load i64, ptr %14, align 8, !tbaa !22
  %16 = icmp eq i64 %15, 0
  br i1 %16, label %17, label %20

17:                                               ; preds = %9
  %18 = tail call noalias ptr @CRYPTO_malloc(i64 noundef 1, ptr noundef nonnull @.str, i32 noundef 168) #6
  store ptr %18, ptr %10, align 8, !tbaa !20
  %19 = icmp eq ptr %18, null
  br i1 %19, label %kdf_pbkdf1_set_membuf.exit.thread, label %kdf_pbkdf1_set_membuf.exit

20:                                               ; preds = %9
  %21 = getelementptr inbounds nuw i8, ptr %8, i64 16
  %22 = load ptr, ptr %21, align 8, !tbaa !25
  %.not.i = icmp eq ptr %22, null
  br i1 %.not.i, label %kdf_pbkdf1_set_membuf.exit, label %23

23:                                               ; preds = %20
  %24 = tail call i32 @OSSL_PARAM_get_octet_string(ptr noundef nonnull %8, ptr noundef nonnull %10, i64 noundef 0, ptr noundef nonnull %11) #6
  %.not10.i = icmp eq i32 %24, 0
  br i1 %.not10.i, label %kdf_pbkdf1_set_membuf.exit.thread, label %kdf_pbkdf1_set_membuf.exit

kdf_pbkdf1_set_membuf.exit:                       ; preds = %23, %20, %17, %7
  %25 = tail call ptr @OSSL_PARAM_locate_const(ptr noundef %1, ptr noundef nonnull @.str.4) #6
  %.not21 = icmp eq ptr %25, null
  br i1 %.not21, label %kdf_pbkdf1_set_membuf.exit28, label %26

26:                                               ; preds = %kdf_pbkdf1_set_membuf.exit
  %27 = getelementptr inbounds nuw i8, ptr %0, i64 48
  %28 = getelementptr inbounds nuw i8, ptr %0, i64 56
  %29 = load ptr, ptr %27, align 8, !tbaa !20
  %30 = load i64, ptr %28, align 8, !tbaa !21
  tail call void @CRYPTO_clear_free(ptr noundef %29, i64 noundef %30, ptr noundef nonnull @.str, i32 noundef 163) #6
  %31 = getelementptr inbounds nuw i8, ptr %25, i64 24
  tail call void @llvm.memset.p0.i64(ptr noundef nonnull align 8 dereferenceable(16) %27, i8 0, i64 16, i1 false)
  %32 = load i64, ptr %31, align 8, !tbaa !22
  %33 = icmp eq i64 %32, 0
  br i1 %33, label %34, label %37

34:                                               ; preds = %26
  %35 = tail call noalias ptr @CRYPTO_malloc(i64 noundef 1, ptr noundef nonnull @.str, i32 noundef 168) #6
  store ptr %35, ptr %27, align 8, !tbaa !20
  %36 = icmp eq ptr %35, null
  br i1 %36, label %kdf_pbkdf1_set_membuf.exit.thread, label %kdf_pbkdf1_set_membuf.exit28

37:                                               ; preds = %26
  %38 = getelementptr inbounds nuw i8, ptr %25, i64 16
  %39 = load ptr, ptr %38, align 8, !tbaa !25
  %.not.i25 = icmp eq ptr %39, null
  br i1 %.not.i25, label %kdf_pbkdf1_set_membuf.exit28, label %40

40:                                               ; preds = %37
  %41 = tail call i32 @OSSL_PARAM_get_octet_string(ptr noundef nonnull %25, ptr noundef nonnull %27, i64 noundef 0, ptr noundef nonnull %28) #6
  %.not10.i26 = icmp eq i32 %41, 0
  br i1 %.not10.i26, label %kdf_pbkdf1_set_membuf.exit.thread, label %kdf_pbkdf1_set_membuf.exit28

kdf_pbkdf1_set_membuf.exit28:                     ; preds = %40, %37, %34, %kdf_pbkdf1_set_membuf.exit
  %42 = tail call ptr @OSSL_PARAM_locate_const(ptr noundef %1, ptr noundef nonnull @.str.5) #6
  %.not23 = icmp eq ptr %42, null
  br i1 %.not23, label %46, label %43

43:                                               ; preds = %kdf_pbkdf1_set_membuf.exit28
  %44 = getelementptr inbounds nuw i8, ptr %0, i64 64
  %45 = tail call i32 @OSSL_PARAM_get_uint64(ptr noundef nonnull %42, ptr noundef nonnull %44) #6
  %.not24 = icmp eq i32 %45, 0
  br i1 %.not24, label %kdf_pbkdf1_set_membuf.exit.thread, label %46

46:                                               ; preds = %43, %kdf_pbkdf1_set_membuf.exit28
  br label %kdf_pbkdf1_set_membuf.exit.thread

kdf_pbkdf1_set_membuf.exit.thread:                ; preds = %40, %34, %23, %17, %43, %2, %46
  %.0 = phi i32 [ 1, %46 ], [ 0, %2 ], [ 0, %43 ], [ 0, %17 ], [ 0, %23 ], [ 0, %34 ], [ 0, %40 ]
  ret i32 %.0
}